target datalayout = "e-m:e-p270:32:32-p271:32:32-p272:64:64-i64:64-i128:128-f80:128-n8:16:32:64-S128"
target triple = "x86_64-pc-linux-gnu"

%struct.DecoderPriv = type { %struct.Decoder, ptr, ptr, ptr, ptr, %struct.AVRational, %struct.AVRational, i32, i32, i32, i32, i32, i32, i64, i64, %struct.AVRational, i64, i32, [2 x ptr], ptr, ptr, i32, i32, ptr, [32 x i8], ptr, i32, ptr, i32, ptr, i32, %struct.anon }
%struct.Decoder = type { ptr, i32, ptr, i32, i64, i64, i64 }
%struct.AVRational = type { i32, i32 }
%struct.anon = type { ptr, ptr }
%struct.SchedulerNode = type { i32, i32, i32 }
%struct.ViewSpecifier = type { i32, i32 }
%struct.anon.0 = type { %struct.ViewSpecifier, i32 }

@.str = private unnamed_addr constant [169 x i8] c"Manually selecting views with -view_ids cannot be combined with view selection via stream specifiers. It is strongly recommended you always use stream specifiers only.\0A\00", align 1
@.str.1 = private unnamed_addr constant [26 x i8] c"Too many view specifiers\0A\00", align 1

; Function Attrs: nounwind uwtable
define internal ptr @dp_from_dec(ptr noundef %0) #0 {
  %2 = alloca ptr, align 8
  store ptr %0, ptr %2, align 8, !tbaa !10
  %3 = load ptr, ptr %2, align 8, !tbaa !10
  ret ptr %3
}

; Function Attrs: nounwind uwtable
define i32 @dec_request_view(ptr noundef %0, ptr noundef %1, ptr noundef %2) #0 {
  %4 = alloca i32, align 4
  %5 = alloca ptr, align 8
  %6 = alloca ptr, align 8
  %7 = alloca ptr, align 8
  %8 = alloca ptr, align 8
  %9 = alloca i32, align 4
  %10 = alloca i32, align 4
  %11 = alloca %struct.SchedulerNode, align 4
  %12 = alloca i32, align 4
  %13 = alloca %struct.ViewSpecifier, align 4
  %14 = alloca i32, align 4
  %15 = alloca ptr, align 8
  %16 = alloca %struct.SchedulerNode, align 4
  %17 = alloca %struct.SchedulerNode, align 4
  store ptr %0, ptr %5, align 8, !tbaa !10
  store ptr %1, ptr %6, align 8, !tbaa !18
  store ptr %2, ptr %7, align 8, !tbaa !20
  call void @llvm.lifetime.start.p0(i64 8, ptr %8) #11
  %18 = load ptr, ptr %5, align 8, !tbaa !10
  %19 = call ptr @dp_from_dec(ptr noundef %18)
  store ptr %19, ptr %8, align 8, !tbaa !12
  call void @llvm.lifetime.start.p0(i64 4, ptr %9) #11
  store i32 0, ptr %9, align 4, !tbaa !14
  call void @llvm.lifetime.start.p0(i64 4, ptr %10) #11
  %20 = load ptr, ptr %8, align 8, !tbaa !12
  %21 = getelementptr inbounds nuw %struct.DecoderPriv, ptr %20, i32 0, i32 26
  %22 = load i32, ptr %21, align 8, !tbaa !22
  %23 = icmp ne i32 %22, 0
  br i1 %23, label %24, label %42

24:                                               ; preds = %3
  %25 = load ptr, ptr %6, align 8, !tbaa !18
  %26 = icmp ne ptr %25, null
  br i1 %26, label %27, label %32

27:                                               ; preds = %24
  %28 = load ptr, ptr %6, align 8, !tbaa !18
  %29 = getelementptr inbounds nuw %struct.ViewSpecifier, ptr %28, i32 0, i32 0
  %30 = load i32, ptr %29, align 4, !tbaa !36
  %31 = icmp eq i32 %30, 0
  br i1 %31, label %32, label %40

32:                                               ; preds = %27, %24
  %33 = load ptr, ptr %7, align 8, !tbaa !20
  %34 = getelementptr inbounds nuw %struct.SchedulerNode, ptr %11, i32 0, i32 0
  store i32 3, ptr %34, align 4, !tbaa !38
  %35 = getelementptr inbounds nuw %struct.SchedulerNode, ptr %11, i32 0, i32 1
  %36 = load ptr, ptr %8, align 8, !tbaa !12
  %37 = getelementptr inbounds nuw %struct.DecoderPriv, ptr %36, i32 0, i32 21
  %38 = load i32, ptr %37, align 8, !tbaa !40
  store i32 %38, ptr %35, align 4, !tbaa !41
  %39 = getelementptr inbounds nuw %struct.SchedulerNode, ptr %11, i32 0, i32 2
  store i32 0, ptr %39, align 4, !tbaa !42
  call void @llvm.memcpy.p0.p0.i64(ptr align 4 %33, ptr align 4 %11, i64 12, i1 false), !tbaa.struct !43
  store i32 0, ptr %4, align 4
  store i32 1, ptr %12, align 4
  br label %199

40:                                               ; preds = %27
  %41 = load ptr, ptr %8, align 8, !tbaa !12
  call void (ptr, i32, ptr, ...) @av_log(ptr noundef %41, i32 noundef 16, ptr noundef @.str)
  store i32 -22, ptr %4, align 4
  store i32 1, ptr %12, align 4
  br label %199

42:                                               ; preds = %3
  %43 = load ptr, ptr %6, align 8, !tbaa !18
  %44 = icmp ne ptr %43, null
  br i1 %44, label %45, label %52

45:                                               ; preds = %42
  %46 = load ptr, ptr %6, align 8, !tbaa !18
  %47 = getelementptr inbounds nuw %struct.ViewSpecifier, ptr %46, i32 0, i32 0
  %48 = load i32, ptr %47, align 4, !tbaa !36
  %49 = icmp ne i32 %48, 0
  br i1 %49, label %50, label %52

50:                                               ; preds = %45
  %51 = load ptr, ptr %6, align 8, !tbaa !18
  br label %55

52:                                               ; preds = %45, %42
  %53 = getelementptr inbounds nuw %struct.ViewSpecifier, ptr %13, i32 0, i32 0
  store i32 1, ptr %53, align 4, !tbaa !36
  %54 = getelementptr inbounds nuw %struct.ViewSpecifier, ptr %13, i32 0, i32 1
  store i32 0, ptr %54, align 4, !tbaa !44
  br label %55

55:                                               ; preds = %52, %50
  %56 = phi ptr [ %51, %50 ], [ %13, %52 ]
  store ptr %56, ptr %6, align 8, !tbaa !18
  call void @llvm.lifetime.start.p0(i64 4, ptr %14) #11
  store i32 0, ptr %14, align 4, !tbaa !14
  br label %57

57:                                               ; preds = %112, %55
  %58 = load i32, ptr %14, align 4, !tbaa !14
  %59 = load ptr, ptr %8, align 8, !tbaa !12
  %60 = getelementptr inbounds nuw %struct.DecoderPriv, ptr %59, i32 0, i32 28
  %61 = load i32, ptr %60, align 8, !tbaa !45
  %62 = icmp slt i32 %58, %61
  br i1 %62, label %64, label %63

63:                                               ; preds = %57
  store i32 2, ptr %12, align 4
  br label %115

64:                                               ; preds = %57
  call void @llvm.lifetime.start.p0(i64 8, ptr %15) #11
  %65 = load ptr, ptr %8, align 8, !tbaa !12
  %66 = getelementptr inbounds nuw %struct.DecoderPriv, ptr %65, i32 0, i32 27
  %67 = load ptr, ptr %66, align 8, !tbaa !46
  %68 = load i32, ptr %14, align 4, !tbaa !14
  %69 = sext i32 %68 to i64
  %70 = getelementptr inbounds %struct.anon.0, ptr %67, i64 %69
  %71 = getelementptr inbounds nuw %struct.anon.0, ptr %70, i32 0, i32 0
  store ptr %71, ptr %15, align 8, !tbaa !18
  %72 = load ptr, ptr %6, align 8, !tbaa !18
  %73 = getelementptr inbounds nuw %struct.ViewSpecifier, ptr %72, i32 0, i32 0
  %74 = load i32, ptr %73, align 4, !tbaa !36
  %75 = load ptr, ptr %15, align 8, !tbaa !18
  %76 = getelementptr inbounds nuw %struct.ViewSpecifier, ptr %75, i32 0, i32 0
  %77 = load i32, ptr %76, align 4, !tbaa !36
  %78 = icmp eq i32 %74, %77
  br i1 %78, label %79, label %108

79:                                               ; preds = %64
  %80 = load ptr, ptr %6, align 8, !tbaa !18
  %81 = getelementptr inbounds nuw %struct.ViewSpecifier, ptr %80, i32 0, i32 0
  %82 = load i32, ptr %81, align 4, !tbaa !36
  %83 = icmp eq i32 %82, 4
  br i1 %83, label %92, label %84

84:                                               ; preds = %79
  %85 = load ptr, ptr %6, align 8, !tbaa !18
  %86 = getelementptr inbounds nuw %struct.ViewSpecifier, ptr %85, i32 0, i32 1
  %87 = load i32, ptr %86, align 4, !tbaa !44
  %88 = load ptr, ptr %15, align 8, !tbaa !18
  %89 = getelementptr inbounds nuw %struct.ViewSpecifier, ptr %88, i32 0, i32 1
  %90 = load i32, ptr %89, align 4, !tbaa !44
  %91 = icmp eq i32 %87, %90
  br i1 %91, label %92, label %108

92:                                               ; preds = %84, %79
  %93 = load ptr, ptr %7, align 8, !tbaa !20
  %94 = getelementptr inbounds nuw %struct.SchedulerNode, ptr %16, i32 0, i32 0
  store i32 3, ptr %94, align 4, !tbaa !38
  %95 = getelementptr inbounds nuw %struct.SchedulerNode, ptr %16, i32 0, i32 1
  %96 = load ptr, ptr %8, align 8, !tbaa !12
  %97 = getelementptr inbounds nuw %struct.DecoderPriv, ptr %96, i32 0, i32 21
  %98 = load i32, ptr %97, align 8, !tbaa !40
  store i32 %98, ptr %95, align 4, !tbaa !41
  %99 = getelementptr inbounds nuw %struct.SchedulerNode, ptr %16, i32 0, i32 2
  %100 = load ptr, ptr %8, align 8, !tbaa !12
  %101 = getelementptr inbounds nuw %struct.DecoderPriv, ptr %100, i32 0, i32 27
  %102 = load ptr, ptr %101, align 8, !tbaa !46
  %103 = load i32, ptr %14, align 4, !tbaa !14
  %104 = sext i32 %103 to i64
  %105 = getelementptr inbounds %struct.anon.0, ptr %102, i64 %104
  %106 = getelementptr inbounds nuw %struct.anon.0, ptr %105, i32 0, i32 1
  %107 = load i32, ptr %106, align 4, !tbaa !47
  store i32 %107, ptr %99, align 4, !tbaa !42
  call void @llvm.memcpy.p0.p0.i64(ptr align 4 %93, ptr align 4 %16, i64 12, i1 false), !tbaa.struct !43
  store i32 0, ptr %4, align 4
  store i32 1, ptr %12, align 4
  br label %109

108:                                              ; preds = %84, %64
  store i32 0, ptr %12, align 4
  br label %109

109:                                              ; preds = %108, %92
  call void @llvm.lifetime.end.p0(i64 8, ptr %15) #11
  %110 = load i32, ptr %12, align 4
  switch i32 %110, label %115 [
    i32 0, label %111
  ]

111:                                              ; preds = %109
  br label %112

112:                                              ; preds = %111
  %113 = load i32, ptr %14, align 4, !tbaa !14
  %114 = add nsw i32 %113, 1
  store i32 %114, ptr %14, align 4, !tbaa !14
  br label %57, !llvm.loop !49

115:                                              ; preds = %109, %63
  call void @llvm.lifetime.end.p0(i64 4, ptr %14) #11
  %116 = load i32, ptr %12, align 4
  switch i32 %116, label %199 [
    i32 2, label %117
  ]

117:                                              ; preds = %115
  %118 = load ptr, ptr %8, align 8, !tbaa !12
  %119 = getelementptr inbounds nuw %struct.DecoderPriv, ptr %118, i32 0, i32 28
  %120 = load i32, ptr %119, align 8, !tbaa !45
  %121 = sext i32 %120 to i64
  %122 = icmp uge i64 %121, 64
  br i1 %122, label %123, label %125

123:                                              ; preds = %117
  %124 = load ptr, ptr %8, align 8, !tbaa !12
  call void (ptr, i32, ptr, ...) @av_log(ptr noundef %124, i32 noundef 16, ptr noundef @.str.1)
  store i32 -38, ptr %4, align 4
  store i32 1, ptr %12, align 4
  br label %199

125:                                              ; preds = %117
  %126 = load ptr, ptr %8, align 8, !tbaa !12
  %127 = getelementptr inbounds nuw %struct.DecoderPriv, ptr %126, i32 0, i32 27
  %128 = load ptr, ptr %8, align 8, !tbaa !12
  %129 = getelementptr inbounds nuw %struct.DecoderPriv, ptr %128, i32 0, i32 28
  %130 = load ptr, ptr %8, align 8, !tbaa !12
  %131 = getelementptr inbounds nuw %struct.DecoderPriv, ptr %130, i32 0, i32 28
  %132 = load i32, ptr %131, align 8, !tbaa !45
  %133 = add nsw i32 %132, 1
  %134 = call i32 @grow_array(ptr noundef %127, i32 noundef 12, ptr noundef %129, i32 noundef %133)
  store i32 %134, ptr %10, align 4, !tbaa !14
  %135 = load i32, ptr %10, align 4, !tbaa !14
  %136 = icmp slt i32 %135, 0
  br i1 %136, label %137, label %139

137:                                              ; preds = %125
  %138 = load i32, ptr %10, align 4, !tbaa !14
  store i32 %138, ptr %4, align 4
  store i32 1, ptr %12, align 4
  br label %199

139:                                              ; preds = %125
  %140 = load ptr, ptr %8, align 8, !tbaa !12
  %141 = getelementptr inbounds nuw %struct.DecoderPriv, ptr %140, i32 0, i32 28
  %142 = load i32, ptr %141, align 8, !tbaa !45
  %143 = icmp sgt i32 %142, 1
  br i1 %143, label %144, label %158

144:                                              ; preds = %139
  %145 = load ptr, ptr %8, align 8, !tbaa !12
  %146 = getelementptr inbounds nuw %struct.DecoderPriv, ptr %145, i32 0, i32 20
  %147 = load ptr, ptr %146, align 8, !tbaa !50
  %148 = load ptr, ptr %8, align 8, !tbaa !12
  %149 = getelementptr inbounds nuw %struct.DecoderPriv, ptr %148, i32 0, i32 21
  %150 = load i32, ptr %149, align 8, !tbaa !40
  %151 = call i32 @sch_add_dec_output(ptr noundef %147, i32 noundef %150)
  store i32 %151, ptr %10, align 4, !tbaa !14
  %152 = load i32, ptr %10, align 4, !tbaa !14
  %153 = icmp slt i32 %152, 0
  br i1 %153, label %154, label %156

154:                                              ; preds = %144
  %155 = load i32, ptr %10, align 4, !tbaa !14
  store i32 %155, ptr %4, align 4
  store i32 1, ptr %12, align 4
  br label %199

156:                                              ; preds = %144
  %157 = load i32, ptr %10, align 4, !tbaa !14
  store i32 %157, ptr %9, align 4, !tbaa !14
  br label %158

158:                                              ; preds = %156, %139
  %159 = load i32, ptr %9, align 4, !tbaa !14
  %160 = load ptr, ptr %8, align 8, !tbaa !12
  %161 = getelementptr inbounds nuw %struct.DecoderPriv, ptr %160, i32 0, i32 27
  %162 = load ptr, ptr %161, align 8, !tbaa !46
  %163 = load ptr, ptr %8, align 8, !tbaa !12
  %164 = getelementptr inbounds nuw %struct.DecoderPriv, ptr %163, i32 0, i32 28
  %165 = load i32, ptr %164, align 8, !tbaa !45
  %166 = sub nsw i32 %165, 1
  %167 = sext i32 %166 to i64
  %168 = getelementptr inbounds %struct.anon.0, ptr %162, i64 %167
  %169 = getelementptr inbounds nuw %struct.anon.0, ptr %168, i32 0, i32 1
  store i32 %159, ptr %169, align 4, !tbaa !47
  %170 = load ptr, ptr %8, align 8, !tbaa !12
  %171 = getelementptr inbounds nuw %struct.DecoderPriv, ptr %170, i32 0, i32 27
  %172 = load ptr, ptr %171, align 8, !tbaa !46
  %173 = load ptr, ptr %8, align 8, !tbaa !12
  %174 = getelementptr inbounds nuw %struct.DecoderPriv, ptr %173, i32 0, i32 28
  %175 = load i32, ptr %174, align 8, !tbaa !45
  %176 = sub nsw i32 %175, 1
  %177 = sext i32 %176 to i64
  %178 = getelementptr inbounds %struct.anon.0, ptr %172, i64 %177
  %179 = getelementptr inbounds nuw %struct.anon.0, ptr %178, i32 0, i32 0
  %180 = load ptr, ptr %6, align 8, !tbaa !18
  call void @llvm.memcpy.p0.p0.i64(ptr align 4 %179, ptr align 4 %180, i64 8, i1 false), !tbaa.struct !51
  %181 = load ptr, ptr %7, align 8, !tbaa !20
  %182 = getelementptr inbounds nuw %struct.SchedulerNode, ptr %17, i32 0, i32 0
  store i32 3, ptr %182, align 4, !tbaa !38
  %183 = getelementptr inbounds nuw %struct.SchedulerNode, ptr %17, i32 0, i32 1
  %184 = load ptr, ptr %8, align 8, !tbaa !12
  %185 = getelementptr inbounds nuw %struct.DecoderPriv, ptr %184, i32 0, i32 21
  %186 = load i32, ptr %185, align 8, !tbaa !40
  store i32 %186, ptr %183, align 4, !tbaa !41
  %187 = getelementptr inbounds nuw %struct.SchedulerNode, ptr %17, i32 0, i32 2
  %188 = load ptr, ptr %8, align 8, !tbaa !12
  %189 = getelementptr inbounds nuw %struct.DecoderPriv, ptr %188, i32 0, i32 27
  %190 = load ptr, ptr %189, align 8, !tbaa !46
  %191 = load ptr, ptr %8, align 8, !tbaa !12
  %192 = getelementptr inbounds nuw %struct.DecoderPriv, ptr %191, i32 0, i32 28
  %193 = load i32, ptr %192, align 8, !tbaa !45
  %194 = sub nsw i32 %193, 1
  %195 = sext i32 %194 to i64
  %196 = getelementptr inbounds %struct.anon.0, ptr %190, i64 %195
  %197 = getelementptr inbounds nuw %struct.anon.0, ptr %196, i32 0, i32 1
  %198 = load i32, ptr %197, align 4, !tbaa !47
  store i32 %198, ptr %187, align 4, !tbaa !42
  call void @llvm.memcpy.p0.p0.i64(ptr align 4 %181, ptr align 4 %17, i64 12, i1 false), !tbaa.struct !43
  store i32 0, ptr %4, align 4
  store i32 1, ptr %12, align 4
  br label %199

199:                                              ; preds = %158, %154, %137, %123, %115, %40, %32
  call void @llvm.lifetime.end.p0(i64 4, ptr %10) #11
  call void @llvm.lifetime.end.p0(i64 4, ptr %9) #11
  call void @llvm.lifetime.end.p0(i64 8, ptr %8) #11
  %200 = load i32, ptr %4, align 4
  ret i32 %200
}