; Function Attrs: nounwind uwtable
define range(i32 -2147483648, 1) i32 @dec_request_view(ptr noundef %0, ptr noundef readonly captures(address_is_null) %1, ptr noundef writeonly captures(none) %2) local_unnamed_addr #0 {
  %4 = alloca %struct.ViewSpecifier, align 4
  %5 = getelementptr inbounds nuw i8, ptr %0, i64 256
  %6 = load i32, ptr %5, align 8, !tbaa !9
  %.not = icmp eq i32 %6, 0
  %.not66 = icmp eq ptr %1, null
  br i1 %.not, label %15, label %7

7:                                                ; preds = %3
  br i1 %.not66, label %11, label %8

8:                                                ; preds = %7
  %9 = load i32, ptr %1, align 4, !tbaa !24
  %10 = icmp eq i32 %9, 0
  br i1 %10, label %11, label %14

11:                                               ; preds = %8, %7
  %12 = getelementptr inbounds nuw i8, ptr %0, i64 200
  %13 = load i32, ptr %12, align 8, !tbaa !26
  store i32 3, ptr %2, align 4, !tbaa !27
  %.sroa.212.0..sroa_idx = getelementptr inbounds nuw i8, ptr %2, i64 4
  store i32 %13, ptr %.sroa.212.0..sroa_idx, align 4, !tbaa !27
  %.sroa.313.0..sroa_idx = getelementptr inbounds nuw i8, ptr %2, i64 8
  store i32 0, ptr %.sroa.313.0..sroa_idx, align 4, !tbaa !27
  br label %77

14:                                               ; preds = %8
  tail call void (ptr, i32, ptr, ...) @av_log(ptr noundef nonnull %0, i32 noundef 16, ptr noundef nonnull @.str) #13
  br label %77

15:                                               ; preds = %3
  br i1 %.not66, label %18, label %16

16:                                               ; preds = %15
  %17 = load i32, ptr %1, align 4, !tbaa !24
  %.not67 = icmp eq i32 %17, 0
  br i1 %.not67, label %18, label %19

18:                                               ; preds = %16, %15
  store i32 1, ptr %4, align 4, !tbaa !24
  %.4..4..4.gep.sroa_idx105 = getelementptr inbounds nuw i8, ptr %4, i64 4
  store i32 0, ptr %.4..4..4.gep.sroa_idx105, align 4, !tbaa !28
  br label %19

19:                                               ; preds = %16, %18
  %20 = phi i32 [ 1, %18 ], [ %17, %16 ]
  %21 = phi ptr [ %4, %18 ], [ %1, %16 ]
  %.sroa.phi = getelementptr inbounds nuw i8, ptr %21, i64 4
  %22 = getelementptr inbounds nuw i8, ptr %0, i64 272
  %23 = load i32, ptr %22, align 8, !tbaa !29
  %.not6876 = icmp sgt i32 %23, 0
  br i1 %.not6876, label %.lr.ph, label %.critedge71

.lr.ph:                                           ; preds = %19
  %24 = getelementptr inbounds nuw i8, ptr %0, i64 264
  %25 = load ptr, ptr %24, align 8, !tbaa !30
  %.fr80 = freeze i32 %20
  %26 = icmp eq i32 %.fr80, 4
  %wide.trip.count90 = zext nneg i32 %23 to i64
  br i1 %26, label %.lr.ph.split.us, label %.lr.ph.split

.lr.ph.split.us:                                  ; preds = %.lr.ph, %30
  %indvars.iv87 = phi i64 [ %indvars.iv.next88, %30 ], [ 0, %.lr.ph ]
  %27 = getelementptr inbounds nuw %struct.anon.0, ptr %25, i64 %indvars.iv87
  %28 = load i32, ptr %27, align 4, !tbaa !24
  %29 = icmp eq i32 %28, 4
  br i1 %29, label %.critedge, label %30

30:                                               ; preds = %.lr.ph.split.us
  %indvars.iv.next88 = add nuw nsw i64 %indvars.iv87, 1
  %exitcond91.not = icmp eq i64 %indvars.iv.next88, %wide.trip.count90
  br i1 %exitcond91.not, label %.critedge71, label %.lr.ph.split.us, !llvm.loop !31

.lr.ph.split:                                     ; preds = %.lr.ph, %43
  %indvars.iv = phi i64 [ %indvars.iv.next, %43 ], [ 0, %.lr.ph ]
  %31 = getelementptr inbounds nuw %struct.anon.0, ptr %25, i64 %indvars.iv
  %32 = load i32, ptr %31, align 4, !tbaa !24
  %33 = icmp eq i32 %.fr80, %32
  br i1 %33, label %34, label %43

34:                                               ; preds = %.lr.ph.split
  %35 = load i32, ptr %.sroa.phi, align 4, !tbaa !28
  %36 = getelementptr inbounds nuw i8, ptr %31, i64 4
  %37 = load i32, ptr %36, align 4, !tbaa !28
  %38 = icmp eq i32 %35, %37
  br i1 %38, label %.critedge, label %43

.critedge:                                        ; preds = %34, %.lr.ph.split.us
  %.us-phi78 = phi i64 [ %indvars.iv87, %.lr.ph.split.us ], [ %indvars.iv, %34 ]
  %39 = getelementptr inbounds nuw i8, ptr %0, i64 200
  %40 = load i32, ptr %39, align 8, !tbaa !26
  %41 = getelementptr inbounds nuw %struct.anon.0, ptr %25, i64 %.us-phi78, i32 1
  %42 = load i32, ptr %41, align 4, !tbaa !33
  store i32 3, ptr %2, align 4, !tbaa !27
  %.sroa.23.0..sroa_idx = getelementptr inbounds nuw i8, ptr %2, i64 4
  store i32 %40, ptr %.sroa.23.0..sroa_idx, align 4, !tbaa !27
  %.sroa.34.0..sroa_idx = getelementptr inbounds nuw i8, ptr %2, i64 8
  store i32 %42, ptr %.sroa.34.0..sroa_idx, align 4, !tbaa !27
  br label %77

43:                                               ; preds = %34, %.lr.ph.split
  %indvars.iv.next = add nuw nsw i64 %indvars.iv, 1
  %exitcond.not = icmp eq i64 %indvars.iv.next, %wide.trip.count90
  br i1 %exitcond.not, label %.critedge71, label %.lr.ph.split, !llvm.loop !31

.critedge71:                                      ; preds = %43, %30, %19
  %44 = icmp ugt i32 %23, 63
  br i1 %44, label %45, label %46

45:                                               ; preds = %.critedge71
  tail call void (ptr, i32, ptr, ...) @av_log(ptr noundef nonnull %0, i32 noundef 16, ptr noundef nonnull @.str.1) #13
  br label %77

46:                                               ; preds = %.critedge71
  %47 = getelementptr inbounds nuw i8, ptr %0, i64 264
  %48 = add nuw nsw i32 %23, 1
  %49 = tail call i32 @grow_array(ptr noundef nonnull %47, i32 noundef 12, ptr noundef nonnull %22, i32 noundef %48) #13
  %50 = icmp slt i32 %49, 0
  br i1 %50, label %77, label %51

51:                                               ; preds = %46
  %52 = load i32, ptr %22, align 8, !tbaa !29
  %53 = icmp sgt i32 %52, 1
  br i1 %53, label %54, label %61

54:                                               ; preds = %51
  %55 = getelementptr inbounds nuw i8, ptr %0, i64 192
  %56 = load ptr, ptr %55, align 8, !tbaa !35
  %57 = getelementptr inbounds nuw i8, ptr %0, i64 200
  %58 = load i32, ptr %57, align 8, !tbaa !26
  %59 = tail call i32 @sch_add_dec_output(ptr noundef %56, i32 noundef %58) #13
  %60 = icmp slt i32 %59, 0
  br i1 %60, label %77, label %._crit_edge

._crit_edge:                                      ; preds = %54
  %.pre = load i32, ptr %22, align 8, !tbaa !29
  br label %61

61:                                               ; preds = %._crit_edge, %51
  %62 = phi i32 [ %52, %51 ], [ %.pre, %._crit_edge ]
  %.056 = phi i32 [ 0, %51 ], [ %59, %._crit_edge ]
  %63 = load ptr, ptr %47, align 8, !tbaa !30
  %64 = sext i32 %62 to i64
  %65 = getelementptr %struct.anon.0, ptr %63, i64 %64
  %66 = getelementptr i8, ptr %65, i64 -4
  store i32 %.056, ptr %66, align 4, !tbaa !33
  %67 = getelementptr i8, ptr %65, i64 -12
  %68 = load i64, ptr %21, align 4
  store i64 %68, ptr %67, align 4
  %69 = getelementptr inbounds nuw i8, ptr %0, i64 200
  %70 = load i32, ptr %69, align 8, !tbaa !26
  %71 = load ptr, ptr %47, align 8, !tbaa !30
  %72 = load i32, ptr %22, align 8, !tbaa !29
  %73 = sext i32 %72 to i64
  %74 = getelementptr %struct.anon.0, ptr %71, i64 %73
  %75 = getelementptr i8, ptr %74, i64 -4
  %76 = load i32, ptr %75, align 4, !tbaa !33
  store i32 3, ptr %2, align 4, !tbaa !27
  %.sroa.2.0..sroa_idx = getelementptr inbounds nuw i8, ptr %2, i64 4
  store i32 %70, ptr %.sroa.2.0..sroa_idx, align 4, !tbaa !27
  %.sroa.3.0..sroa_idx = getelementptr inbounds nuw i8, ptr %2, i64 8
  store i32 %76, ptr %.sroa.3.0..sroa_idx, align 4, !tbaa !27
  br label %77

77:                                               ; preds = %.critedge, %54, %46, %61, %45, %14, %11
  %.0 = phi i32 [ 0, %11 ], [ -22, %14 ], [ -38, %45 ], [ 0, %61 ], [ 0, %.critedge ], [ %49, %46 ], [ %59, %54 ]
  ret i32 %.0
}